; Function Attrs: mustprogress nofree norecurse nosync nounwind willreturn memory(argmem: readwrite) uwtable
define internal noundef zeroext i1 @_ZNSt17_Function_handlerIFvP10gmx_mtop_tEZN3gmx12_GLOBAL__N_115ColvarsMDModule37subscribeToPreProcessingNotificationsEPNS3_18MDModulesNotifiersEEUlS1_E_E10_M_managerERSt9_Any_dataRKSA_St18_Manager_operation(ptr noundef nonnull writeonly align 8 captures(none) dereferenceable(16) %0, ptr noundef nonnull align 8 dereferenceable(16) %1, i32 noundef %2) #15 align 2 personality ptr @__gxx_personality_v0 {
  switch i32 %2, label %_ZNSt14_Function_base13_Base_managerIZN3gmx12_GLOBAL__N_115ColvarsMDModule37subscribeToPreProcessingNotificationsEPNS1_18MDModulesNotifiersEEUlP10gmx_mtop_tE_E10_M_managerERSt9_Any_dataRKSA_St18_Manager_operation.exit [
    i32 0, label %4
    i32 1, label %5
    i32 2, label %6
  ]

4:                                                ; preds = %3
  store ptr @_ZTIZN3gmx12_GLOBAL__N_115ColvarsMDModule37subscribeToPreProcessingNotificationsEPNS_18MDModulesNotifiersEEUlP10gmx_mtop_tE_, ptr %0, align 8, !tbaa !202
  br label %_ZNSt14_Function_base13_Base_managerIZN3gmx12_GLOBAL__N_115ColvarsMDModule37subscribeToPreProcessingNotificationsEPNS1_18MDModulesNotifiersEEUlP10gmx_mtop_tE_E10_M_managerERSt9_Any_dataRKSA_St18_Manager_operation.exit

5:                                                ; preds = %3
  store ptr %1, ptr %0, align 8, !tbaa !71
  br label %_ZNSt14_Function_base13_Base_managerIZN3gmx12_GLOBAL__N_115ColvarsMDModule37subscribeToPreProcessingNotificationsEPNS1_18MDModulesNotifiersEEUlP10gmx_mtop_tE_E10_M_managerERSt9_Any_dataRKSA_St18_Manager_operation.exit

6:                                                ; preds = %3
  %.val.i = load i64, ptr %1, align 8, !tbaa !78
  store i64 %.val.i, ptr %0, align 8, !tbaa !78
  br label %_ZNSt14_Function_base13_Base_managerIZN3gmx12_GLOBAL__N_115ColvarsMDModule37subscribeToPreProcessingNotificationsEPNS1_18MDModulesNotifiersEEUlP10gmx_mtop_tE_E10_M_managerERSt9_Any_dataRKSA_St18_Manager_operation.exit

_ZNSt14_Function_base13_Base_managerIZN3gmx12_GLOBAL__N_115ColvarsMDModule37subscribeToPreProcessingNotificationsEPNS1_18MDModulesNotifiersEEUlP10gmx_mtop_tE_E10_M_managerERSt9_Any_dataRKSA_St18_Manager_operation.exit: ; preds = %3, %6, %5, %4
  ret i1 false
}